; Function Attrs: nounwind uwtable
define internal i32 @Simple_init(ptr noundef captures(none) %0, ptr noundef %1, ptr readnone captures(none) %2) #0 {
  %4 = alloca ptr, align 8
  call void @llvm.lifetime.start.p0(i64 8, ptr nonnull %4) #17
  store ptr null, ptr %4, align 8, !tbaa !27
  %5 = call i32 (ptr, ptr, i64, i64, ...) @PyArg_UnpackTuple(ptr noundef %1, ptr noundef nonnull @.str.200, i64 noundef 0, i64 noundef 1, ptr noundef nonnull %4) #17
  %.not = icmp eq i32 %5, 0
  br i1 %.not, label %Simple_set_value.exit, label %6

6:                                                ; preds = %3
  %7 = load ptr, ptr %4, align 8, !tbaa !27
  %.not3 = icmp eq ptr %7, null
  br i1 %.not3, label %Simple_set_value.exit, label %PyStgInfo_FromObject.exit.i

PyStgInfo_FromObject.exit.i:                      ; preds = %6
  %8 = getelementptr i8, ptr %0, i64 8
  %.val14.i = load ptr, ptr %8, align 8, !tbaa !10
  %9 = getelementptr i8, ptr %.val14.i, i64 8
  %.val.i = load ptr, ptr %9, align 8, !tbaa !10
  %10 = call ptr @PyType_GetModuleByDef(ptr noundef %.val.i, ptr noundef nonnull @_ctypesmodule) #17
  %11 = getelementptr i8, ptr %10, i64 32
  %.val.i.i = load ptr, ptr %11, align 8, !tbaa !63
  %.val15.i = load ptr, ptr %8, align 8, !tbaa !10
  %12 = getelementptr inbounds nuw i8, ptr %.val.i.i, i64 40
  %13 = load ptr, ptr %12, align 8, !tbaa !28
  %14 = call i32 @PyObject_IsInstance(ptr noundef %.val15.i, ptr noundef %13) #17
  %.not.i.i.i = icmp ne i32 %14, 0
  call void @llvm.assume(i1 %.not.i.i.i)
  %15 = load ptr, ptr %12, align 8, !tbaa !28
  %16 = call ptr @PyObject_GetTypeData(ptr noundef %.val15.i, ptr noundef %15) #17
  %17 = load i32, ptr %16, align 8, !tbaa !29
  %.not8.i.i.i = icmp ne i32 %17, 0
  call void @llvm.assume(i1 %.not8.i.i.i)
  %18 = getelementptr inbounds nuw i8, ptr %16, i64 64
  %19 = load ptr, ptr %18, align 8, !tbaa !52
  %20 = getelementptr inbounds nuw i8, ptr %0, i64 16
  %21 = load ptr, ptr %20, align 16, !tbaa !42
  %22 = getelementptr inbounds nuw i8, ptr %16, i64 8
  %23 = load i64, ptr %22, align 8, !tbaa !40
  %24 = call ptr %19(ptr noundef %21, ptr noundef nonnull %7, i64 noundef %23) #17
  %.not.i = icmp eq ptr %24, null
  br i1 %.not.i, label %Simple_set_value.exit, label %25

25:                                               ; preds = %PyStgInfo_FromObject.exit.i
  %26 = call fastcc i32 @KeepRef(ptr noundef nonnull %0, i64 noundef 0, ptr noundef nonnull %24)
  br label %Simple_set_value.exit

Simple_set_value.exit:                            ; preds = %25, %PyStgInfo_FromObject.exit.i, %6, %3
  %.0 = phi i32 [ -1, %3 ], [ 0, %6 ], [ %26, %25 ], [ -1, %PyStgInfo_FromObject.exit.i ]
  call void @llvm.lifetime.end.p0(i64 8, ptr nonnull %4) #17
  ret i32 %.0
}